; Function Attrs: null_pointer_is_valid sspstrong uwtable
define internal noundef zeroext i16 @be_tot_res_acc(ptr noundef %0, ptr noundef %1, ptr readnone captures(none) %2, i32 noundef %3, i32 noundef %4, ptr readnone captures(none) %5, i32 %6) #1 {
  %8 = load i32, ptr @hf_gsm_a_bssmap_tot_no_of_fullr_ch, align 4
  %9 = tail call ptr @proto_tree_add_item(ptr noundef %1, i32 noundef %8, ptr noundef %0, i32 noundef %3, i32 noundef 2, i32 noundef 0)
  %10 = add i32 %3, 2
  %11 = load i32, ptr @hf_gsm_a_bssmap_tot_no_of_hr_ch, align 4
  %12 = tail call ptr @proto_tree_add_item(ptr noundef %1, i32 noundef %11, ptr noundef %0, i32 noundef %10, i32 noundef 2, i32 noundef 0)
  %13 = trunc i32 %4 to i16
  ret i16 %13
}